target datalayout = "e-m:e-p270:32:32-p271:32:32-p272:64:64-i64:64-i128:128-f80:128-n8:16:32:64-S128"
target triple = "x86_64-pc-linux-gnu"

%struct.FT_LibraryRec_ = type { ptr, i32, i32, i32, i32, [32 x ptr], %struct.FT_ListRec_, ptr, ptr, [4 x ptr], [3 x %struct.FT_Vector_], i32 }
%struct.FT_ListRec_ = type { ptr, ptr }
%struct.FT_Vector_ = type { i64, i64 }
%struct.FT_StrokerRec_ = type { i64, i64, %struct.FT_Vector_, i64, i8, i8, i64, %struct.FT_Vector_, i64, i8, i32, i32, i32, i64, i64, [2 x %struct.FT_StrokeBorderRec_], ptr }
%struct.FT_StrokeBorderRec_ = type { i32, i32, ptr, ptr, i8, i32, ptr, i8 }

; Function Attrs: nounwind uwtable
define internal void @ft_stroke_border_init(ptr noundef %0, ptr noundef %1) #0 {
  %3 = alloca ptr, align 8
  %4 = alloca ptr, align 8
  store ptr %0, ptr %3, align 8
  store ptr %1, ptr %4, align 8
  %5 = load ptr, ptr %4, align 8
  %6 = load ptr, ptr %3, align 8
  %7 = getelementptr inbounds %struct.FT_StrokeBorderRec_, ptr %6, i32 0, i32 6
  store ptr %5, ptr %7, align 8
  %8 = load ptr, ptr %3, align 8
  %9 = getelementptr inbounds %struct.FT_StrokeBorderRec_, ptr %8, i32 0, i32 2
  store ptr null, ptr %9, align 8
  %10 = load ptr, ptr %3, align 8
  %11 = getelementptr inbounds %struct.FT_StrokeBorderRec_, ptr %10, i32 0, i32 3
  store ptr null, ptr %11, align 8
  %12 = load ptr, ptr %3, align 8
  %13 = getelementptr inbounds %struct.FT_StrokeBorderRec_, ptr %12, i32 0, i32 0
  store i32 0, ptr %13, align 8
  %14 = load ptr, ptr %3, align 8
  %15 = getelementptr inbounds %struct.FT_StrokeBorderRec_, ptr %14, i32 0, i32 1
  store i32 0, ptr %15, align 4
  %16 = load ptr, ptr %3, align 8
  %17 = getelementptr inbounds %struct.FT_StrokeBorderRec_, ptr %16, i32 0, i32 5
  store i32 -1, ptr %17, align 4
  %18 = load ptr, ptr %3, align 8
  %19 = getelementptr inbounds %struct.FT_StrokeBorderRec_, ptr %18, i32 0, i32 7
  store i8 0, ptr %19, align 8
  ret void
}

; Function Attrs: nounwind uwtable
define i32 @FT_Stroker_New(ptr noundef %0, ptr noundef %1) #0 {
  %3 = alloca i32, align 4
  %4 = alloca ptr, align 8
  %5 = alloca ptr, align 8
  %6 = alloca i32, align 4
  %7 = alloca ptr, align 8
  %8 = alloca ptr, align 8
  store ptr %0, ptr %4, align 8
  store ptr %1, ptr %5, align 8
  store ptr null, ptr %8, align 8
  %9 = load ptr, ptr %4, align 8
  %10 = icmp ne ptr %9, null
  br i1 %10, label %12, label %11

11:                                               ; preds = %2
  store i32 33, ptr %3, align 4
  br label %40

12:                                               ; preds = %2
  %13 = load ptr, ptr %5, align 8
  %14 = icmp ne ptr %13, null
  br i1 %14, label %16, label %15

15:                                               ; preds = %12
  store i32 6, ptr %3, align 4
  br label %40

16:                                               ; preds = %12
  %17 = load ptr, ptr %4, align 8
  %18 = getelementptr inbounds %struct.FT_LibraryRec_, ptr %17, i32 0, i32 0
  %19 = load ptr, ptr %18, align 8
  store ptr %19, ptr %7, align 8
  %20 = load ptr, ptr %7, align 8
  %21 = call ptr @ft_mem_alloc(ptr noundef %20, i64 noundef 216, ptr noundef %6)
  store ptr %21, ptr %8, align 8
  %22 = load i32, ptr %6, align 4
  %23 = icmp ne i32 %22, 0
  br i1 %23, label %36, label %24

24:                                               ; preds = %16
  %25 = load ptr, ptr %4, align 8
  %26 = load ptr, ptr %8, align 8
  %27 = getelementptr inbounds %struct.FT_StrokerRec_, ptr %26, i32 0, i32 16
  store ptr %25, ptr %27, align 8
  %28 = load ptr, ptr %8, align 8
  %29 = getelementptr inbounds %struct.FT_StrokerRec_, ptr %28, i32 0, i32 15
  %30 = getelementptr inbounds [2 x %struct.FT_StrokeBorderRec_], ptr %29, i64 0, i64 0
  %31 = load ptr, ptr %7, align 8
  call void @ft_stroke_border_init(ptr noundef %30, ptr noundef %31)
  %32 = load ptr, ptr %8, align 8
  %33 = getelementptr inbounds %struct.FT_StrokerRec_, ptr %32, i32 0, i32 15
  %34 = getelementptr inbounds [2 x %struct.FT_StrokeBorderRec_], ptr %33, i64 0, i64 1
  %35 = load ptr, ptr %7, align 8
  call void @ft_stroke_border_init(ptr noundef %34, ptr noundef %35)
  br label %36

36:                                               ; preds = %24, %16
  %37 = load ptr, ptr %8, align 8
  %38 = load ptr, ptr %5, align 8
  store ptr %37, ptr %38, align 8
  %39 = load i32, ptr %6, align 4
  store i32 %39, ptr %3, align 4
  br label %40

40:                                               ; preds = %36, %15, %11
  %41 = load i32, ptr %3, align 4
  ret i32 %41
}