; Function Attrs: nounwind uwtable
define i32 @FT_Stroker_New(ptr noundef %0, ptr noundef writeonly %1) local_unnamed_addr #0 {
  %3 = alloca i32, align 4
  %.not = icmp eq ptr %0, null
  br i1 %.not, label %20, label %4

4:                                                ; preds = %2
  %.not14 = icmp eq ptr %1, null
  br i1 %.not14, label %20, label %5

5:                                                ; preds = %4
  %6 = load ptr, ptr %0, align 8
  %7 = call ptr @ft_mem_alloc(ptr noundef %6, i64 noundef 216, ptr noundef nonnull %3) #11
  %8 = load i32, ptr %3, align 4
  %.not15 = icmp eq i32 %8, 0
  br i1 %.not15, label %9, label %19

9:                                                ; preds = %5
  %10 = getelementptr inbounds nuw i8, ptr %7, i64 208
  store ptr %0, ptr %10, align 8
  %11 = getelementptr inbounds nuw i8, ptr %7, i64 112
  %12 = getelementptr inbounds nuw i8, ptr %7, i64 144
  store ptr %6, ptr %12, align 8
  %13 = getelementptr inbounds nuw i8, ptr %7, i64 140
  call void @llvm.memset.p0.i64(ptr noundef nonnull align 8 dereferenceable(24) %11, i8 0, i64 24, i1 false)
  store i32 -1, ptr %13, align 4
  %14 = getelementptr inbounds nuw i8, ptr %7, i64 152
  store i8 0, ptr %14, align 8
  %15 = getelementptr inbounds nuw i8, ptr %7, i64 160
  %16 = getelementptr inbounds nuw i8, ptr %7, i64 192
  store ptr %6, ptr %16, align 8
  %17 = getelementptr inbounds nuw i8, ptr %7, i64 188
  call void @llvm.memset.p0.i64(ptr noundef nonnull align 8 dereferenceable(24) %15, i8 0, i64 24, i1 false)
  store i32 -1, ptr %17, align 4
  %18 = getelementptr inbounds nuw i8, ptr %7, i64 200
  store i8 0, ptr %18, align 8
  br label %19

19:                                               ; preds = %9, %5
  store ptr %7, ptr %1, align 8
  br label %20

20:                                               ; preds = %4, %2, %19
  %.0 = phi i32 [ %8, %19 ], [ 33, %2 ], [ 6, %4 ]
  ret i32 %.0
}